target datalayout = "e-m:e-p270:32:32-p271:32:32-p272:64:64-i64:64-i128:128-f80:128-n8:16:32:64-S128"
target triple = "x86_64-pc-linux-gnu"

%"class.std::__cxx11::basic_string" = type { %"struct.std::__cxx11::basic_string<char>::_Alloc_hider", i64, %union.anon }
%"struct.std::__cxx11::basic_string<char>::_Alloc_hider" = type { ptr }
%union.anon = type { i64, [8 x i8] }
%"class.std::allocator" = type { i8 }
%"class.cv::utils::BufferArea" = type <{ %"class.std::vector", ptr, i64, i8, [7 x i8] }>
%"class.std::vector" = type { %"struct.std::_Vector_base" }
%"struct.std::_Vector_base" = type { %"struct.std::_Vector_base<cv::utils::BufferArea::Block, std::allocator<cv::utils::BufferArea::Block>>::_Vector_impl" }
%"struct.std::_Vector_base<cv::utils::BufferArea::Block, std::allocator<cv::utils::BufferArea::Block>>::_Vector_impl" = type { %"struct.std::_Vector_base<cv::utils::BufferArea::Block, std::allocator<cv::utils::BufferArea::Block>>::_Vector_impl_data" }
%"struct.std::_Vector_base<cv::utils::BufferArea::Block, std::allocator<cv::utils::BufferArea::Block>>::_Vector_impl_data" = type { ptr, ptr, ptr }

@.str.27 = private unnamed_addr constant [12 x i8] c"ptr == NULL\00", align 1
@__func__._ZN2cv5utils10BufferArea8allocateIiEEvRPT_mt = private unnamed_addr constant [9 x i8] c"allocate\00", align 1
@.str.28 = private unnamed_addr constant [155 x i8] c"generated/home/dtcxzyw/WorkSpace/Projects/compilers/llvm-opt-benchmark/bench/opencv/opencv/modules/core/include/opencv2/core/utils/buffer_area.private.hpp\00", align 1
@.str.29 = private unnamed_addr constant [10 x i8] c"count > 0\00", align 1
@.str.30 = private unnamed_addr constant [14 x i8] c"alignment > 0\00", align 1
@.str.31 = private unnamed_addr constant [27 x i8] c"alignment % sizeof(T) == 0\00", align 1
@.str.32 = private unnamed_addr constant [35 x i8] c"(alignment & (alignment - 1)) == 0\00", align 1
@.str.33 = private unnamed_addr constant [12 x i8] c"ptr != NULL\00", align 1

; Function Attrs: mustprogress uwtable
define internal void @_ZN2cv5utils10BufferArea8allocateIPN12_GLOBAL__N_16Node2DEEEvRPT_mt(ptr noundef nonnull align 8 dereferenceable(41) %0, ptr noundef nonnull align 8 dereferenceable(8) %1, i64 noundef %2, i16 noundef zeroext %3) #0 align 2 personality ptr @__gxx_personality_v0 {
  %5 = alloca ptr, align 8
  %6 = alloca ptr, align 8
  %7 = alloca i64, align 8
  %8 = alloca i16, align 2
  %9 = alloca %"class.std::__cxx11::basic_string", align 8
  %10 = alloca %"class.std::allocator", align 1
  %11 = alloca ptr, align 8
  %12 = alloca i32, align 4
  %13 = alloca %"class.std::__cxx11::basic_string", align 8
  %14 = alloca %"class.std::allocator", align 1
  %15 = alloca %"class.std::__cxx11::basic_string", align 8
  %16 = alloca %"class.std::allocator", align 1
  %17 = alloca %"class.std::__cxx11::basic_string", align 8
  %18 = alloca %"class.std::allocator", align 1
  %19 = alloca %"class.std::__cxx11::basic_string", align 8
  %20 = alloca %"class.std::allocator", align 1
  %21 = alloca %"class.std::__cxx11::basic_string", align 8
  %22 = alloca %"class.std::allocator", align 1
  store ptr %0, ptr %5, align 8
  store ptr %1, ptr %6, align 8
  store i64 %2, ptr %7, align 8
  store i16 %3, ptr %8, align 2
  %23 = load ptr, ptr %5, align 8
  br label %24

24:                                               ; preds = %4
  %25 = load ptr, ptr %6, align 8
  %26 = load ptr, ptr %25, align 8
  %27 = icmp eq ptr %26, null
  br i1 %27, label %28, label %29

28:                                               ; preds = %24
  br label %41

29:                                               ; preds = %24
  call void @_ZNSaIcEC1Ev(ptr noundef nonnull align 1 dereferenceable(1) %10) #11
  invoke void @_ZNSt7__cxx1112basic_stringIcSt11char_traitsIcESaIcEEC1EPKcRKS3_(ptr noundef nonnull align 8 dereferenceable(32) %9, ptr noundef @.str.27, ptr noundef nonnull align 1 dereferenceable(1) %10)
          to label %30 unwind label %32

30:                                               ; preds = %29
  invoke void @_ZN2cv5errorEiRKNSt7__cxx1112basic_stringIcSt11char_traitsIcESaIcEEEPKcS9_i(i32 noundef -215, ptr noundef nonnull align 8 dereferenceable(32) %9, ptr noundef @__func__._ZN2cv5utils10BufferArea8allocateIiEEvRPT_mt, ptr noundef @.str.28, i32 noundef 69) #10
          to label %31 unwind label %36

31:                                               ; preds = %30
  unreachable

32:                                               ; preds = %29
  %33 = landingpad { ptr, i32 }
          cleanup
  %34 = extractvalue { ptr, i32 } %33, 0
  store ptr %34, ptr %11, align 8
  %35 = extractvalue { ptr, i32 } %33, 1
  store i32 %35, ptr %12, align 4
  br label %40

36:                                               ; preds = %30
  %37 = landingpad { ptr, i32 }
          cleanup
  %38 = extractvalue { ptr, i32 } %37, 0
  store ptr %38, ptr %11, align 8
  %39 = extractvalue { ptr, i32 } %37, 1
  store i32 %39, ptr %12, align 4
  call void @_ZNSt7__cxx1112basic_stringIcSt11char_traitsIcESaIcEED1Ev(ptr noundef nonnull align 8 dereferenceable(32) %9) #11
  br label %40

40:                                               ; preds = %36, %32
  call void @_ZNSaIcED1Ev(ptr noundef nonnull align 1 dereferenceable(1) %10) #11
  br label %150

41:                                               ; preds = %28
  br label %42

42:                                               ; preds = %41
  br label %43

43:                                               ; preds = %42
  %44 = load i64, ptr %7, align 8
  %45 = icmp ugt i64 %44, 0
  br i1 %45, label %46, label %47

46:                                               ; preds = %43
  br label %59

47:                                               ; preds = %43
  call void @_ZNSaIcEC1Ev(ptr noundef nonnull align 1 dereferenceable(1) %14) #11
  invoke void @_ZNSt7__cxx1112basic_stringIcSt11char_traitsIcESaIcEEC1EPKcRKS3_(ptr noundef nonnull align 8 dereferenceable(32) %13, ptr noundef @.str.29, ptr noundef nonnull align 1 dereferenceable(1) %14)
          to label %48 unwind label %50

48:                                               ; preds = %47
  invoke void @_ZN2cv5errorEiRKNSt7__cxx1112basic_stringIcSt11char_traitsIcESaIcEEEPKcS9_i(i32 noundef -215, ptr noundef nonnull align 8 dereferenceable(32) %13, ptr noundef @__func__._ZN2cv5utils10BufferArea8allocateIiEEvRPT_mt, ptr noundef @.str.28, i32 noundef 70) #10
          to label %49 unwind label %54

49:                                               ; preds = %48
  unreachable

50:                                               ; preds = %47
  %51 = landingpad { ptr, i32 }
          cleanup
  %52 = extractvalue { ptr, i32 } %51, 0
  store ptr %52, ptr %11, align 8
  %53 = extractvalue { ptr, i32 } %51, 1
  store i32 %53, ptr %12, align 4
  br label %58

54:                                               ; preds = %48
  %55 = landingpad { ptr, i32 }
          cleanup
  %56 = extractvalue { ptr, i32 } %55, 0
  store ptr %56, ptr %11, align 8
  %57 = extractvalue { ptr, i32 } %55, 1
  store i32 %57, ptr %12, align 4
  call void @_ZNSt7__cxx1112basic_stringIcSt11char_traitsIcESaIcEED1Ev(ptr noundef nonnull align 8 dereferenceable(32) %13) #11
  br label %58

58:                                               ; preds = %54, %50
  call void @_ZNSaIcED1Ev(ptr noundef nonnull align 1 dereferenceable(1) %14) #11
  br label %150

59:                                               ; preds = %46
  br label %60

60:                                               ; preds = %59
  br label %61

61:                                               ; preds = %60
  %62 = load i16, ptr %8, align 2
  %63 = zext i16 %62 to i32
  %64 = icmp sgt i32 %63, 0
  br i1 %64, label %65, label %66

65:                                               ; preds = %61
  br label %78

66:                                               ; preds = %61
  call void @_ZNSaIcEC1Ev(ptr noundef nonnull align 1 dereferenceable(1) %16) #11
  invoke void @_ZNSt7__cxx1112basic_stringIcSt11char_traitsIcESaIcEEC1EPKcRKS3_(ptr noundef nonnull align 8 dereferenceable(32) %15, ptr noundef @.str.30, ptr noundef nonnull align 1 dereferenceable(1) %16)
          to label %67 unwind label %69

67:                                               ; preds = %66
  invoke void @_ZN2cv5errorEiRKNSt7__cxx1112basic_stringIcSt11char_traitsIcESaIcEEEPKcS9_i(i32 noundef -215, ptr noundef nonnull align 8 dereferenceable(32) %15, ptr noundef @__func__._ZN2cv5utils10BufferArea8allocateIiEEvRPT_mt, ptr noundef @.str.28, i32 noundef 71) #10
          to label %68 unwind label %73

68:                                               ; preds = %67
  unreachable

69:                                               ; preds = %66
  %70 = landingpad { ptr, i32 }
          cleanup
  %71 = extractvalue { ptr, i32 } %70, 0
  store ptr %71, ptr %11, align 8
  %72 = extractvalue { ptr, i32 } %70, 1
  store i32 %72, ptr %12, align 4
  br label %77

73:                                               ; preds = %67
  %74 = landingpad { ptr, i32 }
          cleanup
  %75 = extractvalue { ptr, i32 } %74, 0
  store ptr %75, ptr %11, align 8
  %76 = extractvalue { ptr, i32 } %74, 1
  store i32 %76, ptr %12, align 4
  call void @_ZNSt7__cxx1112basic_stringIcSt11char_traitsIcESaIcEED1Ev(ptr noundef nonnull align 8 dereferenceable(32) %15) #11
  br label %77

77:                                               ; preds = %73, %69
  call void @_ZNSaIcED1Ev(ptr noundef nonnull align 1 dereferenceable(1) %16) #11
  br label %150

78:                                               ; preds = %65
  br label %79

79:                                               ; preds = %78
  br label %80

80:                                               ; preds = %79
  %81 = load i16, ptr %8, align 2
  %82 = zext i16 %81 to i64
  %83 = urem i64 %82, 8
  %84 = icmp eq i64 %83, 0
  br i1 %84, label %85, label %86

85:                                               ; preds = %80
  br label %98

86:                                               ; preds = %80
  call void @_ZNSaIcEC1Ev(ptr noundef nonnull align 1 dereferenceable(1) %18) #11
  invoke void @_ZNSt7__cxx1112basic_stringIcSt11char_traitsIcESaIcEEC1EPKcRKS3_(ptr noundef nonnull align 8 dereferenceable(32) %17, ptr noundef @.str.31, ptr noundef nonnull align 1 dereferenceable(1) %18)
          to label %87 unwind label %89

87:                                               ; preds = %86
  invoke void @_ZN2cv5errorEiRKNSt7__cxx1112basic_stringIcSt11char_traitsIcESaIcEEEPKcS9_i(i32 noundef -215, ptr noundef nonnull align 8 dereferenceable(32) %17, ptr noundef @__func__._ZN2cv5utils10BufferArea8allocateIiEEvRPT_mt, ptr noundef @.str.28, i32 noundef 72) #10
          to label %88 unwind label %93

88:                                               ; preds = %87
  unreachable

89:                                               ; preds = %86
  %90 = landingpad { ptr, i32 }
          cleanup
  %91 = extractvalue { ptr, i32 } %90, 0
  store ptr %91, ptr %11, align 8
  %92 = extractvalue { ptr, i32 } %90, 1
  store i32 %92, ptr %12, align 4
  br label %97

93:                                               ; preds = %87
  %94 = landingpad { ptr, i32 }
          cleanup
  %95 = extractvalue { ptr, i32 } %94, 0
  store ptr %95, ptr %11, align 8
  %96 = extractvalue { ptr, i32 } %94, 1
  store i32 %96, ptr %12, align 4
  call void @_ZNSt7__cxx1112basic_stringIcSt11char_traitsIcESaIcEED1Ev(ptr noundef nonnull align 8 dereferenceable(32) %17) #11
  br label %97

97:                                               ; preds = %93, %89
  call void @_ZNSaIcED1Ev(ptr noundef nonnull align 1 dereferenceable(1) %18) #11
  br label %150

98:                                               ; preds = %85
  br label %99

99:                                               ; preds = %98
  br label %100

100:                                              ; preds = %99
  %101 = load i16, ptr %8, align 2
  %102 = zext i16 %101 to i32
  %103 = load i16, ptr %8, align 2
  %104 = zext i16 %103 to i32
  %105 = sub nsw i32 %104, 1
  %106 = and i32 %102, %105
  %107 = icmp eq i32 %106, 0
  br i1 %107, label %108, label %109

108:                                              ; preds = %100
  br label %121

109:                                              ; preds = %100
  call void @_ZNSaIcEC1Ev(ptr noundef nonnull align 1 dereferenceable(1) %20) #11
  invoke void @_ZNSt7__cxx1112basic_stringIcSt11char_traitsIcESaIcEEC1EPKcRKS3_(ptr noundef nonnull align 8 dereferenceable(32) %19, ptr noundef @.str.32, ptr noundef nonnull align 1 dereferenceable(1) %20)
          to label %110 unwind label %112

110:                                              ; preds = %109
  invoke void @_ZN2cv5errorEiRKNSt7__cxx1112basic_stringIcSt11char_traitsIcESaIcEEEPKcS9_i(i32 noundef -215, ptr noundef nonnull align 8 dereferenceable(32) %19, ptr noundef @__func__._ZN2cv5utils10BufferArea8allocateIiEEvRPT_mt, ptr noundef @.str.28, i32 noundef 73) #10
          to label %111 unwind label %116

111:                                              ; preds = %110
  unreachable

112:                                              ; preds = %109
  %113 = landingpad { ptr, i32 }
          cleanup
  %114 = extractvalue { ptr, i32 } %113, 0
  store ptr %114, ptr %11, align 8
  %115 = extractvalue { ptr, i32 } %113, 1
  store i32 %115, ptr %12, align 4
  br label %120

116:                                              ; preds = %110
  %117 = landingpad { ptr, i32 }
          cleanup
  %118 = extractvalue { ptr, i32 } %117, 0
  store ptr %118, ptr %11, align 8
  %119 = extractvalue { ptr, i32 } %117, 1
  store i32 %119, ptr %12, align 4
  call void @_ZNSt7__cxx1112basic_stringIcSt11char_traitsIcESaIcEED1Ev(ptr noundef nonnull align 8 dereferenceable(32) %19) #11
  br label %120

120:                                              ; preds = %116, %112
  call void @_ZNSaIcED1Ev(ptr noundef nonnull align 1 dereferenceable(1) %20) #11
  br label %150

121:                                              ; preds = %108
  br label %122

122:                                              ; preds = %121
  %123 = load ptr, ptr %6, align 8
  %124 = load i64, ptr %7, align 8
  %125 = load i16, ptr %8, align 2
  call void @_ZN2cv5utils10BufferArea9allocate_EPPvtmt(ptr noundef nonnull align 8 dereferenceable(41) %23, ptr noundef %123, i16 noundef zeroext 8, i64 noundef %124, i16 noundef zeroext %125)
  %126 = getelementptr inbounds %"class.cv::utils::BufferArea", ptr %23, i32 0, i32 3
  %127 = load i8, ptr %126, align 8
  %128 = trunc i8 %127 to i1
  br i1 %128, label %129, label %149

129:                                              ; preds = %122
  br label %130

130:                                              ; preds = %129
  %131 = load ptr, ptr %6, align 8
  %132 = load ptr, ptr %131, align 8
  %133 = icmp ne ptr %132, null
  br i1 %133, label %134, label %135

134:                                              ; preds = %130
  br label %147

135:                                              ; preds = %130
  call void @_ZNSaIcEC1Ev(ptr noundef nonnull align 1 dereferenceable(1) %22) #11
  invoke void @_ZNSt7__cxx1112basic_stringIcSt11char_traitsIcESaIcEEC1EPKcRKS3_(ptr noundef nonnull align 8 dereferenceable(32) %21, ptr noundef @.str.33, ptr noundef nonnull align 1 dereferenceable(1) %22)
          to label %136 unwind label %138

136:                                              ; preds = %135
  invoke void @_ZN2cv5errorEiRKNSt7__cxx1112basic_stringIcSt11char_traitsIcESaIcEEEPKcS9_i(i32 noundef -215, ptr noundef nonnull align 8 dereferenceable(32) %21, ptr noundef @__func__._ZN2cv5utils10BufferArea8allocateIiEEvRPT_mt, ptr noundef @.str.28, i32 noundef 78) #10
          to label %137 unwind label %142

137:                                              ; preds = %136
  unreachable

138:                                              ; preds = %135
  %139 = landingpad { ptr, i32 }
          cleanup
  %140 = extractvalue { ptr, i32 } %139, 0
  store ptr %140, ptr %11, align 8
  %141 = extractvalue { ptr, i32 } %139, 1
  store i32 %141, ptr %12, align 4
  br label %146

142:                                              ; preds = %136
  %143 = landingpad { ptr, i32 }
          cleanup
  %144 = extractvalue { ptr, i32 } %143, 0
  store ptr %144, ptr %11, align 8
  %145 = extractvalue { ptr, i32 } %143, 1
  store i32 %145, ptr %12, align 4
  call void @_ZNSt7__cxx1112basic_stringIcSt11char_traitsIcESaIcEED1Ev(ptr noundef nonnull align 8 dereferenceable(32) %21) #11
  br label %146

146:                                              ; preds = %142, %138
  call void @_ZNSaIcED1Ev(ptr noundef nonnull align 1 dereferenceable(1) %22) #11
  br label %150

147:                                              ; preds = %134
  br label %148

148:                                              ; preds = %147
  br label %149

149:                                              ; preds = %148, %122
  ret void

150:                                              ; preds = %146, %120, %97, %77, %58, %40
  %151 = load ptr, ptr %11, align 8
  %152 = load i32, ptr %12, align 4
  %153 = insertvalue { ptr, i32 } poison, ptr %151, 0
  %154 = insertvalue { ptr, i32 } %153, i32 %152, 1
  resume { ptr, i32 } %154
}